target datalayout = "e-m:e-p270:32:32-p271:32:32-p272:64:64-i64:64-i128:128-f80:128-n8:16:32:64-S128"
target triple = "x86_64-pc-linux-gnu"

%"class.std::__shared_count" = type { ptr }
%"class.std::_Function_base" = type { %"union.std::_Any_data", ptr }
%"union.std::_Any_data" = type { %"union.std::_Nocopy_types" }
%"union.std::_Nocopy_types" = type { { i64, i64 } }
%"class.WasmEdge::Async" = type { %"class.std::shared_future", %"class.std::thread", %"class.std::function.275" }
%"class.std::shared_future" = type { %"class.std::__basic_future" }
%"class.std::__basic_future" = type { %"class.std::shared_ptr.272" }
%"class.std::shared_ptr.272" = type { %"class.std::__shared_ptr.273" }
%"class.std::__shared_ptr.273" = type { ptr, %"class.std::__shared_count" }
%"class.std::thread" = type { %"class.std::thread::id" }
%"class.std::thread::id" = type { i64 }
%"class.std::function.275" = type { %"class.std::_Function_base", ptr }
%struct.WasmEdge_Async = type { %"class.WasmEdge::Async" }

; Function Attrs: mustprogress nounwind uwtable
define linkonce_odr hidden void @_ZN14WasmEdge_AsyncD2Ev(ptr noundef nonnull align 8 dereferenceable(56) %0) unnamed_addr #0 comdat align 2 {
  %2 = alloca ptr, align 8
  store ptr %0, ptr %2, align 8
  %3 = load ptr, ptr %2, align 8
  %4 = getelementptr inbounds %struct.WasmEdge_Async, ptr %3, i32 0, i32 0
  call void @_ZN8WasmEdge5AsyncIN5cxx208expectedISt6vectorISt4pairINS_7VariantIJjimlfdonDv2_mDv2_lDv4_jDv4_iDv8_tDv8_sDv16_hDv16_aDv4_fDv2_dNS_10RefVariantENS_10StrVariantEEEENS_7ValTypeEESaISK_EENS_7ErrCodeEEEED2Ev(ptr noundef nonnull align 8 dereferenceable(56) %4) #18
  ret void
}

; Function Attrs: mustprogress nounwind uwtable
define void @WasmEdge_AsyncDelete(ptr noundef %0) #0 {
  %2 = alloca ptr, align 8
  store ptr %0, ptr %2, align 8
  %3 = load ptr, ptr %2, align 8
  %4 = icmp eq ptr %3, null
  br i1 %4, label %6, label %5

5:                                                ; preds = %1
  call void @_ZN14WasmEdge_AsyncD2Ev(ptr noundef nonnull align 8 dereferenceable(56) %3) #18
  call void @_ZdlPvm(ptr noundef %3, i64 noundef 56) #22
  br label %6

6:                                                ; preds = %5, %1
  ret void
}