; Function Attrs: mustprogress nounwind uwtable
define void @WasmEdge_AsyncDelete(ptr noundef %0) local_unnamed_addr #10 {
  %2 = icmp eq ptr %0, null
  br i1 %2, label %4, label %3

3:                                                ; preds = %1
  tail call void @_ZN8WasmEdge5AsyncIN5cxx208expectedISt6vectorISt4pairINS_7VariantIJjimlfdonDv2_mDv2_lDv4_jDv4_iDv8_tDv8_sDv16_hDv16_aDv4_fDv2_dNS_10RefVariantENS_10StrVariantEEEENS_7ValTypeEESaISK_EENS_7ErrCodeEEEED2Ev(ptr noundef nonnull align 8 dereferenceable(56) %0) #37
  tail call void @_ZdlPvm(ptr noundef nonnull %0, i64 noundef 56) #36
  br label %4

4:                                                ; preds = %3, %1
  ret void
}